target datalayout = "e-m:e-p270:32:32-p271:32:32-p272:64:64-i64:64-i128:128-f80:128-n8:16:32:64-S128"
target triple = "x86_64-pc-linux-gnu"

@easysrc_decl = dso_local global ptr null, align 8
@easysrc_data = dso_local global ptr null, align 8
@easysrc_code = dso_local global ptr null, align 8
@easysrc_toohard = dso_local global ptr null, align 8
@easysrc_clean = dso_local global ptr null, align 8
@.str.4 = private unnamed_addr constant [24 x i8] c"curl_easy_cleanup(hnd);\00", align 1
@.str.5 = private unnamed_addr constant [12 x i8] c"hnd = NULL;\00", align 1

; Function Attrs: nounwind uwtable
define internal void @easysrc_free() #0 {
  %1 = load ptr, ptr @easysrc_decl, align 8, !tbaa !13
  call void @slist_wc_free_all(ptr noundef %1)
  store ptr null, ptr @easysrc_decl, align 8, !tbaa !13
  %2 = load ptr, ptr @easysrc_data, align 8, !tbaa !13
  call void @slist_wc_free_all(ptr noundef %2)
  store ptr null, ptr @easysrc_data, align 8, !tbaa !13
  %3 = load ptr, ptr @easysrc_code, align 8, !tbaa !13
  call void @slist_wc_free_all(ptr noundef %3)
  store ptr null, ptr @easysrc_code, align 8, !tbaa !13
  %4 = load ptr, ptr @easysrc_toohard, align 8, !tbaa !13
  call void @slist_wc_free_all(ptr noundef %4)
  store ptr null, ptr @easysrc_toohard, align 8, !tbaa !13
  %5 = load ptr, ptr @easysrc_clean, align 8, !tbaa !13
  call void @slist_wc_free_all(ptr noundef %5)
  store ptr null, ptr @easysrc_clean, align 8, !tbaa !13
  ret void
}

; Function Attrs: nounwind uwtable
define dso_local i32 @easysrc_add(ptr noundef %0, ptr noundef %1) #0 {
  %3 = alloca ptr, align 8
  %4 = alloca ptr, align 8
  %5 = alloca i32, align 4
  %6 = alloca ptr, align 8
  store ptr %0, ptr %3, align 8, !tbaa !4
  store ptr %1, ptr %4, align 8, !tbaa !9
  call void @llvm.lifetime.start.p0(i64 4, ptr %5) #5
  store i32 0, ptr %5, align 4, !tbaa !11
  call void @llvm.lifetime.start.p0(i64 8, ptr %6) #5
  %7 = load ptr, ptr %3, align 8, !tbaa !4
  %8 = load ptr, ptr %7, align 8, !tbaa !13
  %9 = load ptr, ptr %4, align 8, !tbaa !9
  %10 = call ptr @slist_wc_append(ptr noundef %8, ptr noundef %9)
  store ptr %10, ptr %6, align 8, !tbaa !13
  %11 = load ptr, ptr %6, align 8, !tbaa !13
  %12 = icmp ne ptr %11, null
  br i1 %12, label %14, label %13

13:                                               ; preds = %2
  call void @easysrc_free()
  store i32 27, ptr %5, align 4, !tbaa !11
  br label %17

14:                                               ; preds = %2
  %15 = load ptr, ptr %6, align 8, !tbaa !13
  %16 = load ptr, ptr %3, align 8, !tbaa !4
  store ptr %15, ptr %16, align 8, !tbaa !13
  br label %17

17:                                               ; preds = %14, %13
  %18 = load i32, ptr %5, align 4, !tbaa !11
  call void @llvm.lifetime.end.p0(i64 8, ptr %6) #5
  call void @llvm.lifetime.end.p0(i64 4, ptr %5) #5
  ret i32 %18
}

; Function Attrs: nounwind uwtable
define dso_local i32 @easysrc_cleanup() #0 {
  %1 = alloca i32, align 4
  %2 = alloca i32, align 4
  %3 = alloca i32, align 4
  %4 = alloca i32, align 4
  br label %5

5:                                                ; preds = %0
  call void @llvm.lifetime.start.p0(i64 4, ptr %2) #5
  %6 = call i32 @easysrc_add(ptr noundef @easysrc_code, ptr noundef @.str.4)
  store i32 %6, ptr %2, align 4, !tbaa !11
  %7 = load i32, ptr %2, align 4, !tbaa !11
  %8 = icmp ne i32 %7, 0
  br i1 %8, label %9, label %11

9:                                                ; preds = %5
  %10 = load i32, ptr %2, align 4, !tbaa !11
  store i32 %10, ptr %1, align 4
  store i32 1, ptr %3, align 4
  br label %12

11:                                               ; preds = %5
  store i32 0, ptr %3, align 4
  br label %12

12:                                               ; preds = %11, %9
  call void @llvm.lifetime.end.p0(i64 4, ptr %2) #5
  %13 = load i32, ptr %3, align 4
  switch i32 %13, label %29 [
    i32 0, label %14
    i32 1, label %27
  ]

14:                                               ; preds = %12
  br label %15

15:                                               ; preds = %14
  br label %16

16:                                               ; preds = %15
  call void @llvm.lifetime.start.p0(i64 4, ptr %4) #5
  %17 = call i32 @easysrc_add(ptr noundef @easysrc_code, ptr noundef @.str.5)
  store i32 %17, ptr %4, align 4, !tbaa !11
  %18 = load i32, ptr %4, align 4, !tbaa !11
  %19 = icmp ne i32 %18, 0
  br i1 %19, label %20, label %22

20:                                               ; preds = %16
  %21 = load i32, ptr %4, align 4, !tbaa !11
  store i32 %21, ptr %1, align 4
  store i32 1, ptr %3, align 4
  br label %23

22:                                               ; preds = %16
  store i32 0, ptr %3, align 4
  br label %23

23:                                               ; preds = %22, %20
  call void @llvm.lifetime.end.p0(i64 4, ptr %4) #5
  %24 = load i32, ptr %3, align 4
  switch i32 %24, label %29 [
    i32 0, label %25
    i32 1, label %27
  ]

25:                                               ; preds = %23
  br label %26

26:                                               ; preds = %25
  store i32 0, ptr %1, align 4
  br label %27

27:                                               ; preds = %26, %23, %12
  %28 = load i32, ptr %1, align 4
  ret i32 %28

29:                                               ; preds = %23, %12
  unreachable
}