; Function Attrs: nounwind uwtable
define dso_local range(i32 0, 28) i32 @easysrc_cleanup() local_unnamed_addr #0 {
  %1 = load ptr, ptr @easysrc_code, align 8, !tbaa !4
  %2 = tail call ptr @slist_wc_append(ptr noundef %1, ptr noundef nonnull @.str.4) #5
  %.not.i = icmp eq ptr %2, null
  br i1 %.not.i, label %easysrc_add.exit, label %8

easysrc_add.exit:                                 ; preds = %0
  %3 = load ptr, ptr @easysrc_decl, align 8, !tbaa !4
  tail call void @slist_wc_free_all(ptr noundef %3) #5
  store ptr null, ptr @easysrc_decl, align 8, !tbaa !4
  %4 = load ptr, ptr @easysrc_data, align 8, !tbaa !4
  tail call void @slist_wc_free_all(ptr noundef %4) #5
  store ptr null, ptr @easysrc_data, align 8, !tbaa !4
  %5 = load ptr, ptr @easysrc_code, align 8, !tbaa !4
  tail call void @slist_wc_free_all(ptr noundef %5) #5
  store ptr null, ptr @easysrc_code, align 8, !tbaa !4
  %6 = load ptr, ptr @easysrc_toohard, align 8, !tbaa !4
  tail call void @slist_wc_free_all(ptr noundef %6) #5
  store ptr null, ptr @easysrc_toohard, align 8, !tbaa !4
  %7 = load ptr, ptr @easysrc_clean, align 8, !tbaa !4
  tail call void @slist_wc_free_all(ptr noundef %7) #5
  store ptr null, ptr @easysrc_clean, align 8, !tbaa !4
  br label %easysrc_add.exit14

8:                                                ; preds = %0
  store ptr %2, ptr @easysrc_code, align 8, !tbaa !4
  %9 = tail call ptr @slist_wc_append(ptr noundef nonnull %2, ptr noundef nonnull @.str.5) #5
  %.not.i12.not = icmp eq ptr %9, null
  br i1 %.not.i12.not, label %10, label %16

10:                                               ; preds = %8
  %11 = load ptr, ptr @easysrc_decl, align 8, !tbaa !4
  tail call void @slist_wc_free_all(ptr noundef %11) #5
  store ptr null, ptr @easysrc_decl, align 8, !tbaa !4
  %12 = load ptr, ptr @easysrc_data, align 8, !tbaa !4
  tail call void @slist_wc_free_all(ptr noundef %12) #5
  store ptr null, ptr @easysrc_data, align 8, !tbaa !4
  %13 = load ptr, ptr @easysrc_code, align 8, !tbaa !4
  tail call void @slist_wc_free_all(ptr noundef %13) #5
  store ptr null, ptr @easysrc_code, align 8, !tbaa !4
  %14 = load ptr, ptr @easysrc_toohard, align 8, !tbaa !4
  tail call void @slist_wc_free_all(ptr noundef %14) #5
  store ptr null, ptr @easysrc_toohard, align 8, !tbaa !4
  %15 = load ptr, ptr @easysrc_clean, align 8, !tbaa !4
  tail call void @slist_wc_free_all(ptr noundef %15) #5
  store ptr null, ptr @easysrc_clean, align 8, !tbaa !4
  br label %easysrc_add.exit14

16:                                               ; preds = %8
  store ptr %9, ptr @easysrc_code, align 8, !tbaa !4
  br label %easysrc_add.exit14

easysrc_add.exit14:                               ; preds = %16, %10, %easysrc_add.exit
  %.1 = phi i32 [ 27, %easysrc_add.exit ], [ 0, %16 ], [ 27, %10 ]
  ret i32 %.1
}